target datalayout = "e-m:e-p270:32:32-p271:32:32-p272:64:64-i64:64-i128:128-f80:128-n8:16:32:64-S128"
target triple = "x86_64-pc-linux-gnu"

%"class.triggers::trigger_t" = type <{ ptr, i64, i8, i8, i8, i8, i8, [3 x i8], i32, i32, i32, i32, i32, [4 x i8] }>
%class.processor_t = type { %class.abstract_device_t, i8, i32, %class.isa_parser_t, ptr, ptr, ptr, %"class.std::unordered_map", ptr, %struct.state_t, i32, i32, i8, i8, ptr, %"class.std::basic_ostream", i8, i8, i8, %"class.std::vector.82", %"class.std::bitset", %"class.std::bitset", %"class.std::bitset", %"class.std::vector.86", %"class.std::vector.86", %"class.std::unordered_map.91", [4095 x %class.opcode_cache_entry_t], i64, i64, i64, %class.entropy_source, i64, i64, %class.vectorUnit_t, %"class.triggers::module_t" }
%class.abstract_device_t = type { ptr }
%class.isa_parser_t = type { i32, i64, i64, i64, i8, i8, %"class.std::bitset", %"class.std::__cxx11::basic_string", %"class.std::set" }
%"class.std::__cxx11::basic_string" = type { %"struct.std::__cxx11::basic_string<char>::_Alloc_hider", i64, %union.anon }
%"struct.std::__cxx11::basic_string<char>::_Alloc_hider" = type { ptr }
%union.anon = type { i64, [8 x i8] }
%"class.std::set" = type { %"class.std::_Rb_tree" }
%"class.std::_Rb_tree" = type { %"struct.std::_Rb_tree<std::__cxx11::basic_string<char>, std::__cxx11::basic_string<char>, std::_Identity<std::__cxx11::basic_string<char>>, std::less<std::__cxx11::basic_string<char>>>::_Rb_tree_impl" }
%"struct.std::_Rb_tree<std::__cxx11::basic_string<char>, std::__cxx11::basic_string<char>, std::_Identity<std::__cxx11::basic_string<char>>, std::less<std::__cxx11::basic_string<char>>>::_Rb_tree_impl" = type { [8 x i8], %"struct.std::_Rb_tree_header" }
%"struct.std::_Rb_tree_header" = type { %"struct.std::_Rb_tree_node_base", i64 }
%"struct.std::_Rb_tree_node_base" = type { i32, ptr, ptr, ptr }
%"class.std::unordered_map" = type { %"class.std::_Hashtable" }
%"class.std::_Hashtable" = type { ptr, i64, %"struct.std::__detail::_Hash_node_base", i64, %"struct.std::__detail::_Prime_rehash_policy", ptr }
%"struct.std::__detail::_Hash_node_base" = type { ptr }
%"struct.std::__detail::_Prime_rehash_policy" = type { float, i64 }
%struct.state_t = type <{ i64, %class.regfile_t, %class.regfile_t.8, %"class.std::unordered_map.9", i64, i64, i8, i8, i8, i8, [4 x i8], %"class.std::shared_ptr", %"class.std::shared_ptr.29", %"class.std::shared_ptr.32", %"class.std::shared_ptr.32", %"class.std::shared_ptr.32", %"class.std::shared_ptr.32", %"class.std::shared_ptr.32", %"class.std::shared_ptr.35", %"class.std::shared_ptr.35", %"class.std::shared_ptr.38", %"class.std::shared_ptr.41", %"class.std::shared_ptr.32", %"class.std::shared_ptr.32", %"class.std::shared_ptr.32", %"class.std::shared_ptr.32", [29 x %"class.std::shared_ptr.32"], %"class.std::shared_ptr.32", %"class.std::shared_ptr.32", %"class.std::shared_ptr.32", %"class.std::shared_ptr.32", %"class.std::shared_ptr.32", %"class.std::shared_ptr.32", %"class.std::shared_ptr.44", %"class.std::shared_ptr.32", %"class.std::shared_ptr.32", %"class.std::shared_ptr.32", %"class.std::shared_ptr.32", %"class.std::shared_ptr.32", %"class.std::shared_ptr.47", %"class.std::shared_ptr.32", %"class.std::shared_ptr.32", %"class.std::shared_ptr.32", %"class.std::shared_ptr.32", %"class.std::shared_ptr.32", %"class.std::shared_ptr.32", %"class.std::shared_ptr.32", %"class.std::shared_ptr.32", %"class.std::shared_ptr.32", %"class.std::shared_ptr.50", %"class.std::shared_ptr.53", %"class.std::shared_ptr.56", %"class.std::shared_ptr.32", %"class.std::shared_ptr.32", %"class.std::shared_ptr.32", %"class.std::shared_ptr.32", %"class.std::shared_ptr.32", %"class.std::shared_ptr.32", %"class.std::shared_ptr.59", %"class.std::shared_ptr.32", %"class.std::shared_ptr.32", %"class.std::shared_ptr.32", %"class.std::shared_ptr.32", %"class.std::shared_ptr.32", %"class.std::shared_ptr.32", i8, [7 x i8], %"class.std::shared_ptr.62", [64 x %"class.std::shared_ptr.65"], %"class.std::shared_ptr.68", %"class.std::shared_ptr.68", %"class.std::shared_ptr.32", %"class.std::shared_ptr.32", %"class.std::shared_ptr.32", [4 x %"class.std::shared_ptr.32"], [4 x %"class.std::shared_ptr.32"], [4 x %"class.std::shared_ptr.32"], %"class.std::shared_ptr.32", %"class.std::shared_ptr.71", %"class.std::shared_ptr.32", %"class.std::shared_ptr.32", %"class.std::shared_ptr.32", %"class.std::shared_ptr.32", i8, [3 x i8], i32, %"class.std::map", %"class.std::vector", %"class.std::vector", i64, i32, i32, i32, i8, [3 x i8] }>
%class.regfile_t = type { [32 x i64] }
%class.regfile_t.8 = type { [32 x %struct.float128_t] }
%struct.float128_t = type { [2 x i64] }
%"class.std::unordered_map.9" = type { %"class.std::_Hashtable.10" }
%"class.std::_Hashtable.10" = type { ptr, i64, %"struct.std::__detail::_Hash_node_base", i64, %"struct.std::__detail::_Prime_rehash_policy", ptr }
%"class.std::shared_ptr" = type { %"class.std::__shared_ptr" }
%"class.std::__shared_ptr" = type { ptr, %"class.std::__shared_count" }
%"class.std::__shared_count" = type { ptr }
%"class.std::shared_ptr.29" = type { %"class.std::__shared_ptr.30" }
%"class.std::__shared_ptr.30" = type { ptr, %"class.std::__shared_count" }
%"class.std::shared_ptr.35" = type { %"class.std::__shared_ptr.36" }
%"class.std::__shared_ptr.36" = type { ptr, %"class.std::__shared_count" }
%"class.std::shared_ptr.38" = type { %"class.std::__shared_ptr.39" }
%"class.std::__shared_ptr.39" = type { ptr, %"class.std::__shared_count" }
%"class.std::shared_ptr.41" = type { %"class.std::__shared_ptr.42" }
%"class.std::__shared_ptr.42" = type { ptr, %"class.std::__shared_count" }
%"class.std::shared_ptr.44" = type { %"class.std::__shared_ptr.45" }
%"class.std::__shared_ptr.45" = type { ptr, %"class.std::__shared_count" }
%"class.std::shared_ptr.47" = type { %"class.std::__shared_ptr.48" }
%"class.std::__shared_ptr.48" = type { ptr, %"class.std::__shared_count" }
%"class.std::shared_ptr.50" = type { %"class.std::__shared_ptr.51" }
%"class.std::__shared_ptr.51" = type { ptr, %"class.std::__shared_count" }
%"class.std::shared_ptr.53" = type { %"class.std::__shared_ptr.54" }
%"class.std::__shared_ptr.54" = type { ptr, %"class.std::__shared_count" }
%"class.std::shared_ptr.56" = type { %"class.std::__shared_ptr.57" }
%"class.std::__shared_ptr.57" = type { ptr, %"class.std::__shared_count" }
%"class.std::shared_ptr.59" = type { %"class.std::__shared_ptr.60" }
%"class.std::__shared_ptr.60" = type { ptr, %"class.std::__shared_count" }
%"class.std::shared_ptr.62" = type { %"class.std::__shared_ptr.63" }
%"class.std::__shared_ptr.63" = type { ptr, %"class.std::__shared_count" }
%"class.std::shared_ptr.65" = type { %"class.std::__shared_ptr.66" }
%"class.std::__shared_ptr.66" = type { ptr, %"class.std::__shared_count" }
%"class.std::shared_ptr.68" = type { %"class.std::__shared_ptr.69" }
%"class.std::__shared_ptr.69" = type { ptr, %"class.std::__shared_count" }
%"class.std::shared_ptr.71" = type { %"class.std::__shared_ptr.72" }
%"class.std::__shared_ptr.72" = type { ptr, %"class.std::__shared_count" }
%"class.std::shared_ptr.32" = type { %"class.std::__shared_ptr.33" }
%"class.std::__shared_ptr.33" = type { ptr, %"class.std::__shared_count" }
%"class.std::map" = type { %"class.std::_Rb_tree.74" }
%"class.std::_Rb_tree.74" = type { %"struct.std::_Rb_tree<unsigned long, std::pair<const unsigned long, float128_t>, std::_Select1st<std::pair<const unsigned long, float128_t>>, std::less<unsigned long>>::_Rb_tree_impl" }
%"struct.std::_Rb_tree<unsigned long, std::pair<const unsigned long, float128_t>, std::_Select1st<std::pair<const unsigned long, float128_t>>, std::less<unsigned long>>::_Rb_tree_impl" = type { [8 x i8], %"struct.std::_Rb_tree_header" }
%"class.std::vector" = type { %"struct.std::_Vector_base" }
%"struct.std::_Vector_base" = type { %"struct.std::_Vector_base<std::tuple<unsigned long, unsigned long, unsigned char>, std::allocator<std::tuple<unsigned long, unsigned long, unsigned char>>>::_Vector_impl" }
%"struct.std::_Vector_base<std::tuple<unsigned long, unsigned long, unsigned char>, std::allocator<std::tuple<unsigned long, unsigned long, unsigned char>>>::_Vector_impl" = type { %"struct.std::_Vector_base<std::tuple<unsigned long, unsigned long, unsigned char>, std::allocator<std::tuple<unsigned long, unsigned long, unsigned char>>>::_Vector_impl_data" }
%"struct.std::_Vector_base<std::tuple<unsigned long, unsigned long, unsigned char>, std::allocator<std::tuple<unsigned long, unsigned long, unsigned char>>>::_Vector_impl_data" = type { ptr, ptr, ptr }
%"class.std::basic_ostream" = type { ptr, %"class.std::basic_ios" }
%"class.std::basic_ios" = type { %"class.std::ios_base", ptr, i8, i8, ptr, ptr, ptr, ptr }
%"class.std::ios_base" = type { ptr, i64, i64, i32, i32, i32, ptr, %"struct.std::ios_base::_Words", [8 x %"struct.std::ios_base::_Words"], i32, ptr, %"class.std::locale" }
%"struct.std::ios_base::_Words" = type { ptr, i64 }
%"class.std::locale" = type { ptr }
%"class.std::vector.82" = type { %"struct.std::_Bvector_base" }
%"struct.std::_Bvector_base" = type { %"struct.std::_Bvector_base<std::allocator<bool>>::_Bvector_impl" }
%"struct.std::_Bvector_base<std::allocator<bool>>::_Bvector_impl" = type { %"struct.std::_Bvector_base<std::allocator<bool>>::_Bvector_impl_data" }
%"struct.std::_Bvector_base<std::allocator<bool>>::_Bvector_impl_data" = type { %"struct.std::_Bit_iterator", %"struct.std::_Bit_iterator", ptr }
%"struct.std::_Bit_iterator" = type { %"struct.std::_Bit_iterator_base.base", [4 x i8] }
%"struct.std::_Bit_iterator_base.base" = type <{ ptr, i32 }>
%"class.std::bitset" = type { %"struct.std::_Base_bitset" }
%"struct.std::_Base_bitset" = type { [3 x i64] }
%"class.std::vector.86" = type { %"struct.std::_Vector_base.87" }
%"struct.std::_Vector_base.87" = type { %"struct.std::_Vector_base<insn_desc_t, std::allocator<insn_desc_t>>::_Vector_impl" }
%"struct.std::_Vector_base<insn_desc_t, std::allocator<insn_desc_t>>::_Vector_impl" = type { %"struct.std::_Vector_base<insn_desc_t, std::allocator<insn_desc_t>>::_Vector_impl_data" }
%"struct.std::_Vector_base<insn_desc_t, std::allocator<insn_desc_t>>::_Vector_impl_data" = type { ptr, ptr, ptr }
%"class.std::unordered_map.91" = type { %"class.std::_Hashtable.92" }
%"class.std::_Hashtable.92" = type { ptr, i64, %"struct.std::__detail::_Hash_node_base", i64, %"struct.std::__detail::_Prime_rehash_policy", ptr }
%class.opcode_cache_entry_t = type { [4 x i64], [4 x ptr] }
%class.entropy_source = type { %"class.std::__cxx11::basic_string" }
%class.vectorUnit_t = type <{ ptr, ptr, [32 x i8], i32, [4 x i8], i64, i64, %"class.std::shared_ptr.32", %"class.std::shared_ptr.105", %"class.std::shared_ptr.105", %"class.std::shared_ptr.105", %"class.std::shared_ptr.105", i64, i64, i64, float, [4 x i8], i64, i64, i8, i8, [6 x i8] }>
%"class.std::shared_ptr.105" = type { %"class.std::__shared_ptr.106" }
%"class.std::__shared_ptr.106" = type { ptr, %"class.std::__shared_count" }
%"class.triggers::module_t" = type { ptr, %"class.std::vector.108" }
%"class.std::vector.108" = type { %"struct.std::_Vector_base.109" }
%"struct.std::_Vector_base.109" = type { %"struct.std::_Vector_base<triggers::trigger_t *, std::allocator<triggers::trigger_t *>>::_Vector_impl" }
%"struct.std::_Vector_base<triggers::trigger_t *, std::allocator<triggers::trigger_t *>>::_Vector_impl" = type { %"struct.std::_Vector_base<triggers::trigger_t *, std::allocator<triggers::trigger_t *>>::_Vector_impl_data" }
%"struct.std::_Vector_base<triggers::trigger_t *, std::allocator<triggers::trigger_t *>>::_Vector_impl_data" = type { ptr, ptr, ptr }

; Function Attrs: mustprogress nounwind uwtable
define void @_ZN8triggers9trigger_t12tdata2_writeEP11processor_tm(ptr noundef nonnull align 8 dereferenceable(44) %0, ptr noundef %1, i64 noundef %2) #4 align 2 {
  %4 = alloca ptr, align 8
  %5 = alloca ptr, align 8
  %6 = alloca i64, align 8
  store ptr %0, ptr %4, align 8, !tbaa !3
  store ptr %1, ptr %5, align 8, !tbaa !8
  store i64 %2, ptr %6, align 8, !tbaa !16
  %7 = load ptr, ptr %4, align 8
  %8 = load i64, ptr %6, align 8, !tbaa !16
  %9 = getelementptr inbounds nuw %"class.triggers::trigger_t", ptr %7, i32 0, i32 1
  store i64 %8, ptr %9, align 8, !tbaa !10
  ret void
}

; Function Attrs: mustprogress nounwind uwtable
define linkonce_odr noundef ptr @_ZN11processor_t9get_stateEv(ptr noundef nonnull align 8 dereferenceable(266872) %0) #4 comdat align 2 {
  %2 = alloca ptr, align 8
  store ptr %0, ptr %2, align 8, !tbaa !8
  %3 = load ptr, ptr %2, align 8
  %4 = getelementptr inbounds nuw %class.processor_t, ptr %3, i32 0, i32 9
  ret ptr %4
}

; Function Attrs: mustprogress nounwind uwtable
define linkonce_odr noundef nonnull align 8 dereferenceable(8) ptr @_ZNSt6vectorIPN8triggers9trigger_tESaIS2_EEixEm(ptr noundef nonnull align 8 dereferenceable(24) %0, i64 noundef %1) #4 comdat align 2 {
  %3 = alloca ptr, align 8
  %4 = alloca i64, align 8
  store ptr %0, ptr %3, align 8, !tbaa !265
  store i64 %1, ptr %4, align 8, !tbaa !16
  %5 = load ptr, ptr %3, align 8
  %6 = getelementptr inbounds nuw %"struct.std::_Vector_base.109", ptr %5, i32 0, i32 0
  %7 = getelementptr inbounds nuw %"struct.std::_Vector_base<triggers::trigger_t *, std::allocator<triggers::trigger_t *>>::_Vector_impl_data", ptr %6, i32 0, i32 0
  %8 = load ptr, ptr %7, align 8, !tbaa !267
  %9 = load i64, ptr %4, align 8, !tbaa !16
  %10 = getelementptr inbounds nuw ptr, ptr %8, i64 %9
  ret ptr %10
}

; Function Attrs: mustprogress nounwind uwtable
define noundef zeroext i1 @_ZN8triggers8module_t12tdata2_writeEjm(ptr noundef nonnull align 8 dereferenceable(32) %0, i32 noundef %1, i64 noundef %2) #4 align 2 personality ptr @__gxx_personality_v0 {
  %4 = alloca i1, align 1
  %5 = alloca ptr, align 8
  %6 = alloca i32, align 4
  %7 = alloca i64, align 8
  store ptr %0, ptr %5, align 8, !tbaa !260
  store i32 %1, ptr %6, align 4, !tbaa !28
  store i64 %2, ptr %7, align 8, !tbaa !16
  %8 = load ptr, ptr %5, align 8
  %9 = getelementptr inbounds nuw %"class.triggers::module_t", ptr %8, i32 0, i32 1
  %10 = load i32, ptr %6, align 4, !tbaa !28
  %11 = zext i32 %10 to i64
  %12 = call noundef nonnull align 8 dereferenceable(8) ptr @_ZNSt6vectorIPN8triggers9trigger_tESaIS2_EEixEm(ptr noundef nonnull align 8 dereferenceable(24) %9, i64 noundef %11) #3
  %13 = load ptr, ptr %12, align 8, !tbaa !3
  %14 = load ptr, ptr %13, align 8, !tbaa !161
  %15 = getelementptr inbounds ptr, ptr %14, i64 4
  %16 = load ptr, ptr %15, align 8
  %17 = invoke noundef zeroext i1 %16(ptr noundef nonnull align 8 dereferenceable(44) %13)
          to label %18 unwind label %43

18:                                               ; preds = %3
  br i1 %17, label %19, label %28

19:                                               ; preds = %18
  %20 = getelementptr inbounds nuw %"class.triggers::module_t", ptr %8, i32 0, i32 0
  %21 = load ptr, ptr %20, align 8, !tbaa !274
  %22 = invoke noundef ptr @_ZN11processor_t9get_stateEv(ptr noundef nonnull align 8 dereferenceable(266872) %21)
          to label %23 unwind label %43

23:                                               ; preds = %19
  %24 = getelementptr inbounds nuw %struct.state_t, ptr %22, i32 0, i32 65
  %25 = load i8, ptr %24, align 8, !tbaa !243, !range !18, !noundef !19
  %26 = trunc i8 %25 to i1
  br i1 %26, label %28, label %27

27:                                               ; preds = %23
  store i1 false, ptr %4, align 1
  br label %41

28:                                               ; preds = %23, %18
  %29 = getelementptr inbounds nuw %"class.triggers::module_t", ptr %8, i32 0, i32 1
  %30 = load i32, ptr %6, align 4, !tbaa !28
  %31 = zext i32 %30 to i64
  %32 = call noundef nonnull align 8 dereferenceable(8) ptr @_ZNSt6vectorIPN8triggers9trigger_tESaIS2_EEixEm(ptr noundef nonnull align 8 dereferenceable(24) %29, i64 noundef %31) #3
  %33 = load ptr, ptr %32, align 8, !tbaa !3
  %34 = getelementptr inbounds nuw %"class.triggers::module_t", ptr %8, i32 0, i32 0
  %35 = load ptr, ptr %34, align 8, !tbaa !274
  %36 = load i64, ptr %7, align 8, !tbaa !16
  call void @_ZN8triggers9trigger_t12tdata2_writeEP11processor_tm(ptr noundef nonnull align 8 dereferenceable(44) %33, ptr noundef %35, i64 noundef %36) #3
  %37 = getelementptr inbounds nuw %"class.triggers::module_t", ptr %8, i32 0, i32 0
  %38 = load ptr, ptr %37, align 8, !tbaa !274
  %39 = getelementptr inbounds nuw %"class.triggers::module_t", ptr %8, i32 0, i32 1
  invoke void @_ZN11processor_t15trigger_updatedERKSt6vectorIPN8triggers9trigger_tESaIS3_EE(ptr noundef nonnull align 8 dereferenceable(266872) %38, ptr noundef nonnull align 8 dereferenceable(24) %39)
          to label %40 unwind label %43

40:                                               ; preds = %28
  store i1 true, ptr %4, align 1
  br label %41

41:                                               ; preds = %40, %27
  %42 = load i1, ptr %4, align 1
  ret i1 %42

43:                                               ; preds = %28, %19, %3
  %44 = landingpad { ptr, i32 }
          catch ptr null
  %45 = extractvalue { ptr, i32 } %44, 0
  call void @__clang_call_terminate(ptr %45) #19
  unreachable
}