; Function Attrs: mustprogress nounwind uwtable
define noundef zeroext i1 @_ZN8triggers8module_t12tdata2_writeEjm(ptr noundef nonnull align 8 dereferenceable(32) %0, i32 noundef %1, i64 noundef %2) local_unnamed_addr #6 align 2 personality ptr @__gxx_personality_v0 {
  %4 = getelementptr inbounds nuw i8, ptr %0, i64 8
  %5 = zext i32 %1 to i64
  %6 = load ptr, ptr %4, align 8, !tbaa !204
  %7 = getelementptr inbounds nuw ptr, ptr %6, i64 %5
  %8 = load ptr, ptr %7, align 8, !tbaa !206
  %9 = load ptr, ptr %8, align 8, !tbaa !147
  %10 = getelementptr inbounds nuw i8, ptr %9, i64 32
  %11 = load ptr, ptr %10, align 8
  %12 = invoke noundef zeroext i1 %11(ptr noundef nonnull align 8 dereferenceable(44) %8)
          to label %13 unwind label %24

13:                                               ; preds = %3
  %.pre = load ptr, ptr %0, align 8, !tbaa !211
  br i1 %12, label %14, label %18

14:                                               ; preds = %13
  %15 = getelementptr inbounds nuw i8, ptr %.pre, i64 2416
  %16 = load i8, ptr %15, align 8, !tbaa !195, !range !14, !noundef !15
  %17 = trunc nuw i8 %16 to i1
  br i1 %17, label %18, label %23

18:                                               ; preds = %14, %13
  %19 = load ptr, ptr %4, align 8, !tbaa !204
  %20 = getelementptr inbounds nuw ptr, ptr %19, i64 %5
  %21 = load ptr, ptr %20, align 8, !tbaa !206
  %22 = getelementptr inbounds nuw i8, ptr %21, i64 8
  store i64 %2, ptr %22, align 8, !tbaa !3
  invoke void @_ZN11processor_t15trigger_updatedERKSt6vectorIPN8triggers9trigger_tESaIS3_EE(ptr noundef nonnull align 8 dereferenceable(266872) %.pre, ptr noundef nonnull align 8 dereferenceable(24) %4)
          to label %23 unwind label %24

23:                                               ; preds = %18, %14
  %.0 = phi i1 [ false, %14 ], [ true, %18 ]
  ret i1 %.0

24:                                               ; preds = %18, %3
  %25 = landingpad { ptr, i32 }
          catch ptr null
  %26 = extractvalue { ptr, i32 } %25, 0
  tail call void @__clang_call_terminate(ptr %26) #21
  unreachable
}